target datalayout = "e-m:e-p270:32:32-p271:32:32-p272:64:64-i64:64-i128:128-f80:128-n8:16:32:64-S128"
target triple = "x86_64-pc-linux-gnu"

%"struct.vcpkg::StringLiteral" = type { %"struct.vcpkg::ZStringView" }
%"struct.vcpkg::ZStringView" = type { %"struct.vcpkg::StringView" }
%"struct.vcpkg::StringView" = type { ptr, i64 }
%"struct.vcpkg::LineInfo" = type { i32, ptr }

@.str.3 = private unnamed_addr constant [117 x i8] c"generated/home/dtcxzyw/WorkSpace/Projects/compilers/llvm-opt-benchmark/bench/vcpkg/vcpkg-tool/src/vcpkg/versions.cpp\00", align 1
@_ZZN5vcpkg17to_string_literalENS_13VersionSchemeEE7MISSING = internal constant { ptr, i64 } { ptr @.str.4, i64 7 }, align 8
@_ZZN5vcpkg17to_string_literalENS_13VersionSchemeEE6STRING = internal constant { ptr, i64 } { ptr @.str.5, i64 6 }, align 8
@_ZZN5vcpkg17to_string_literalENS_13VersionSchemeEE6SEMVER = internal constant { ptr, i64 } { ptr @.str.6, i64 6 }, align 8
@_ZZN5vcpkg17to_string_literalENS_13VersionSchemeEE7RELAXED = internal constant { ptr, i64 } { ptr @.str.7, i64 7 }, align 8
@_ZZN5vcpkg17to_string_literalENS_13VersionSchemeEE4DATE = internal constant { ptr, i64 } { ptr @.str.8, i64 4 }, align 8

; Function Attrs: mustprogress uwtable
define dso_local { ptr, i64 } @_ZN5vcpkg17to_string_literalENS_13VersionSchemeE(i32 noundef %0) #2 {
  %2 = alloca %"struct.vcpkg::StringLiteral", align 8
  %3 = alloca i32, align 4
  %4 = alloca %"struct.vcpkg::LineInfo", align 8
  store i32 %0, ptr %3, align 4
  %5 = load i32, ptr %3, align 4
  switch i32 %5, label %11 [
    i32 0, label %6
    i32 4, label %7
    i32 2, label %8
    i32 1, label %9
    i32 3, label %10
  ]

6:                                                ; preds = %1
  call void @llvm.memcpy.p0.p0.i64(ptr align 8 %2, ptr align 8 @_ZZN5vcpkg17to_string_literalENS_13VersionSchemeEE7MISSING, i64 16, i1 false)
  br label %14

7:                                                ; preds = %1
  call void @llvm.memcpy.p0.p0.i64(ptr align 8 %2, ptr align 8 @_ZZN5vcpkg17to_string_literalENS_13VersionSchemeEE6STRING, i64 16, i1 false)
  br label %14

8:                                                ; preds = %1
  call void @llvm.memcpy.p0.p0.i64(ptr align 8 %2, ptr align 8 @_ZZN5vcpkg17to_string_literalENS_13VersionSchemeEE6SEMVER, i64 16, i1 false)
  br label %14

9:                                                ; preds = %1
  call void @llvm.memcpy.p0.p0.i64(ptr align 8 %2, ptr align 8 @_ZZN5vcpkg17to_string_literalENS_13VersionSchemeEE7RELAXED, i64 16, i1 false)
  br label %14

10:                                               ; preds = %1
  call void @llvm.memcpy.p0.p0.i64(ptr align 8 %2, ptr align 8 @_ZZN5vcpkg17to_string_literalENS_13VersionSchemeEE4DATE, i64 16, i1 false)
  br label %14

11:                                               ; preds = %1
  %12 = getelementptr inbounds %"struct.vcpkg::LineInfo", ptr %4, i32 0, i32 0
  store i32 405, ptr %12, align 8
  %13 = getelementptr inbounds %"struct.vcpkg::LineInfo", ptr %4, i32 0, i32 1
  store ptr @.str.3, ptr %13, align 8
  call void @_ZN5vcpkg6Checks11unreachableERKNS_8LineInfoE(ptr noundef nonnull align 8 dereferenceable(16) %4) #15
  unreachable

14:                                               ; preds = %10, %9, %8, %7, %6
  %15 = getelementptr inbounds %"struct.vcpkg::StringLiteral", ptr %2, i32 0, i32 0
  %16 = getelementptr inbounds %"struct.vcpkg::ZStringView", ptr %15, i32 0, i32 0
  %17 = load { ptr, i64 }, ptr %16, align 8
  ret { ptr, i64 } %17
}